target datalayout = "e-m:e-p270:32:32-p271:32:32-p272:64:64-i64:64-i128:128-f80:128-n8:16:32:64-S128"
target triple = "x86_64-pc-linux-gnu"

%struct._typeobject = type { %struct.PyVarObject, ptr, i64, i64, ptr, i64, ptr, ptr, ptr, ptr, ptr, ptr, ptr, ptr, ptr, ptr, ptr, ptr, ptr, i64, ptr, ptr, ptr, ptr, i64, ptr, ptr, ptr, ptr, ptr, ptr, ptr, ptr, ptr, i64, ptr, ptr, ptr, ptr, ptr, ptr, ptr, ptr, ptr, ptr, ptr, i32, ptr, ptr, i8, i16 }
%struct.PyVarObject = type { %struct._object, i64 }
%struct._object = type { %union.anon, ptr }
%union.anon = type { i64 }
%struct.anon = type { i32, i32 }

@HeapTypeNameType_Spec = internal global { ptr, i32, i32, i32, [4 x i8], ptr } { ptr @.str.17, i32 16, i32 0, i32 0, [4 x i8] zeroinitializer, ptr @HeapTypeNameType_slots }, align 8
@.str.20 = private unnamed_addr constant [36 x i8] c"../cpython/Modules/_testcapi/type.c\00", align 1
@PyLong_Type = external global %struct._typeobject, align 8
@.str.21 = private unnamed_addr constant [10 x i8] c"long_dict\00", align 1
@__PRETTY_FUNCTION__.test_get_type_dict = private unnamed_addr constant [53 x i8] c"PyObject *test_get_type_dict(PyObject *, PyObject *)\00", align 1
@.str.22 = private unnamed_addr constant [9 x i8] c"to_bytes\00", align 1
@.str.23 = private unnamed_addr constant [44 x i8] c"PyDict_GetItemString(long_dict, \22to_bytes\22)\00", align 1
@.str.24 = private unnamed_addr constant [17 x i8] c"HeapTypeNameType\00", align 1
@.str.25 = private unnamed_addr constant [9 x i8] c"new_attr\00", align 1
@_Py_NoneStruct = external global %struct._object, align 8
@.str.26 = private unnamed_addr constant [79 x i8] c"PyObject_SetAttrString( HeapTypeNameType, \22new_attr\22, Py_NewRef(Py_None)) >= 0\00", align 1
@.str.27 = private unnamed_addr constant [10 x i8] c"type_dict\00", align 1
@.str.28 = private unnamed_addr constant [44 x i8] c"PyDict_GetItemString(type_dict, \22new_attr\22)\00", align 1

; Function Attrs: alwaysinline nounwind uwtable
define internal void @Py_INCREF(ptr noundef %0) #5 {
  %2 = alloca ptr, align 8
  %3 = alloca i32, align 4
  %4 = alloca i32, align 4
  store ptr %0, ptr %2, align 8, !tbaa !3
  call void @llvm.lifetime.start.p0(i64 4, ptr %3) #7
  %5 = load ptr, ptr %2, align 8, !tbaa !3
  %6 = getelementptr inbounds nuw %struct._object, ptr %5, i32 0, i32 0
  %7 = getelementptr inbounds nuw %struct.anon, ptr %6, i32 0, i32 0
  %8 = load i32, ptr %7, align 8, !tbaa !33
  store i32 %8, ptr %3, align 4, !tbaa !27
  %9 = load i32, ptr %3, align 4, !tbaa !27
  %10 = icmp slt i32 %9, 0
  br i1 %10, label %11, label %12

11:                                               ; preds = %1
  store i32 1, ptr %4, align 4
  br label %18

12:                                               ; preds = %1
  %13 = load i32, ptr %3, align 4, !tbaa !27
  %14 = add i32 %13, 1
  %15 = load ptr, ptr %2, align 8, !tbaa !3
  %16 = getelementptr inbounds nuw %struct._object, ptr %15, i32 0, i32 0
  %17 = getelementptr inbounds nuw %struct.anon, ptr %16, i32 0, i32 0
  store i32 %14, ptr %17, align 8, !tbaa !33
  store i32 0, ptr %4, align 4
  br label %18

18:                                               ; preds = %12, %11
  call void @llvm.lifetime.end.p0(i64 4, ptr %3) #7
  %19 = load i32, ptr %4, align 4
  switch i32 %19, label %21 [
    i32 0, label %20
    i32 1, label %20
  ]

20:                                               ; preds = %18, %18
  ret void

21:                                               ; preds = %18
  unreachable
}

; Function Attrs: alwaysinline nounwind uwtable
define internal i32 @_Py_IsImmortal(ptr noundef %0) #5 {
  %2 = alloca ptr, align 8
  store ptr %0, ptr %2, align 8, !tbaa !3
  %3 = load ptr, ptr %2, align 8, !tbaa !3
  %4 = getelementptr inbounds nuw %struct._object, ptr %3, i32 0, i32 0
  %5 = getelementptr inbounds nuw %struct.anon, ptr %4, i32 0, i32 0
  %6 = load i32, ptr %5, align 8, !tbaa !33
  %7 = icmp slt i32 %6, 0
  %8 = zext i1 %7 to i32
  ret i32 %8
}

; Function Attrs: inlinehint nounwind uwtable
define internal ptr @_Py_NewRef(ptr noundef %0) #2 {
  %2 = alloca ptr, align 8
  store ptr %0, ptr %2, align 8, !tbaa !3
  %3 = load ptr, ptr %2, align 8, !tbaa !3
  call void @Py_INCREF(ptr noundef %3)
  %4 = load ptr, ptr %2, align 8, !tbaa !3
  ret ptr %4
}

; Function Attrs: alwaysinline nounwind uwtable
define internal void @Py_DECREF(ptr noundef %0) #5 {
  %2 = alloca ptr, align 8
  store ptr %0, ptr %2, align 8, !tbaa !3
  %3 = load ptr, ptr %2, align 8, !tbaa !3
  %4 = call i32 @_Py_IsImmortal(ptr noundef %3)
  %5 = icmp ne i32 %4, 0
  br i1 %5, label %6, label %7

6:                                                ; preds = %1
  br label %16

7:                                                ; preds = %1
  %8 = load ptr, ptr %2, align 8, !tbaa !3
  %9 = getelementptr inbounds nuw %struct._object, ptr %8, i32 0, i32 0
  %10 = getelementptr inbounds nuw %struct.anon, ptr %9, i32 0, i32 0
  %11 = load i32, ptr %10, align 8, !tbaa !33
  %12 = add i32 %11, -1
  store i32 %12, ptr %10, align 8, !tbaa !33
  %13 = icmp eq i32 %12, 0
  br i1 %13, label %14, label %16

14:                                               ; preds = %7
  %15 = load ptr, ptr %2, align 8, !tbaa !3
  call void @_Py_Dealloc(ptr noundef %15)
  br label %16

16:                                               ; preds = %6, %14, %7
  ret void
}

; Function Attrs: nounwind uwtable
define internal ptr @test_get_type_dict(ptr noundef %0, ptr noundef %1) #0 {
  %3 = alloca ptr, align 8
  %4 = alloca ptr, align 8
  %5 = alloca ptr, align 8
  %6 = alloca ptr, align 8
  %7 = alloca ptr, align 8
  store ptr %0, ptr %3, align 8, !tbaa !3
  store ptr %1, ptr %4, align 8, !tbaa !3
  call void @llvm.lifetime.start.p0(i64 8, ptr %5) #7
  %8 = call ptr @PyType_GetDict(ptr noundef @PyLong_Type)
  store ptr %8, ptr %5, align 8, !tbaa !3
  %9 = load ptr, ptr %5, align 8, !tbaa !3
  %10 = icmp ne ptr %9, null
  br i1 %10, label %11, label %12

11:                                               ; preds = %2
  br label %14

12:                                               ; preds = %2
  call void @__assert_fail(ptr noundef @.str.21, ptr noundef @.str.20, i32 noundef 62, ptr noundef @__PRETTY_FUNCTION__.test_get_type_dict) #6
  unreachable

13:                                               ; No predecessors!
  br label %14

14:                                               ; preds = %13, %11
  %15 = load ptr, ptr %5, align 8, !tbaa !3
  %16 = call ptr @PyDict_GetItemString(ptr noundef %15, ptr noundef @.str.22)
  %17 = icmp ne ptr %16, null
  br i1 %17, label %18, label %19

18:                                               ; preds = %14
  br label %21

19:                                               ; preds = %14
  call void @__assert_fail(ptr noundef @.str.23, ptr noundef @.str.20, i32 noundef 63, ptr noundef @__PRETTY_FUNCTION__.test_get_type_dict) #6
  unreachable

20:                                               ; No predecessors!
  br label %21

21:                                               ; preds = %20, %18
  %22 = load ptr, ptr %5, align 8, !tbaa !3
  call void @Py_DECREF(ptr noundef %22)
  call void @llvm.lifetime.start.p0(i64 8, ptr %6) #7
  %23 = call ptr @PyType_FromSpec(ptr noundef @HeapTypeNameType_Spec)
  store ptr %23, ptr %6, align 8, !tbaa !3
  %24 = load ptr, ptr %6, align 8, !tbaa !3
  %25 = icmp ne ptr %24, null
  br i1 %25, label %26, label %27

26:                                               ; preds = %21
  br label %29

27:                                               ; preds = %21
  call void @__assert_fail(ptr noundef @.str.24, ptr noundef @.str.20, i32 noundef 68, ptr noundef @__PRETTY_FUNCTION__.test_get_type_dict) #6
  unreachable

28:                                               ; No predecessors!
  br label %29

29:                                               ; preds = %28, %26
  %30 = load ptr, ptr %6, align 8, !tbaa !3
  %31 = call ptr @_Py_NewRef(ptr noundef @_Py_NoneStruct)
  %32 = call i32 @PyObject_SetAttrString(ptr noundef %30, ptr noundef @.str.25, ptr noundef %31)
  %33 = icmp sge i32 %32, 0
  br i1 %33, label %34, label %35

34:                                               ; preds = %29
  br label %37

35:                                               ; preds = %29
  call void @__assert_fail(ptr noundef @.str.26, ptr noundef @.str.20, i32 noundef 70, ptr noundef @__PRETTY_FUNCTION__.test_get_type_dict) #6
  unreachable

36:                                               ; No predecessors!
  br label %37

37:                                               ; preds = %36, %34
  call void @llvm.lifetime.start.p0(i64 8, ptr %7) #7
  %38 = load ptr, ptr %6, align 8, !tbaa !3
  %39 = call ptr @PyType_GetDict(ptr noundef %38)
  store ptr %39, ptr %7, align 8, !tbaa !3
  %40 = load ptr, ptr %7, align 8, !tbaa !3
  %41 = icmp ne ptr %40, null
  br i1 %41, label %42, label %43

42:                                               ; preds = %37
  br label %45

43:                                               ; preds = %37
  call void @__assert_fail(ptr noundef @.str.27, ptr noundef @.str.20, i32 noundef 72, ptr noundef @__PRETTY_FUNCTION__.test_get_type_dict) #6
  unreachable

44:                                               ; No predecessors!
  br label %45

45:                                               ; preds = %44, %42
  %46 = load ptr, ptr %7, align 8, !tbaa !3
  %47 = call ptr @PyDict_GetItemString(ptr noundef %46, ptr noundef @.str.25)
  %48 = icmp ne ptr %47, null
  br i1 %48, label %49, label %50

49:                                               ; preds = %45
  br label %52

50:                                               ; preds = %45
  call void @__assert_fail(ptr noundef @.str.28, ptr noundef @.str.20, i32 noundef 73, ptr noundef @__PRETTY_FUNCTION__.test_get_type_dict) #6
  unreachable

51:                                               ; No predecessors!
  br label %52

52:                                               ; preds = %51, %49
  %53 = load ptr, ptr %6, align 8, !tbaa !3
  call void @Py_DECREF(ptr noundef %53)
  %54 = load ptr, ptr %7, align 8, !tbaa !3
  call void @Py_DECREF(ptr noundef %54)
  call void @llvm.lifetime.end.p0(i64 8, ptr %7) #7
  call void @llvm.lifetime.end.p0(i64 8, ptr %6) #7
  call void @llvm.lifetime.end.p0(i64 8, ptr %5) #7
  ret ptr @_Py_NoneStruct
}