; Function Attrs: nounwind uwtable
define internal noundef nonnull ptr @test_get_type_dict(ptr readnone captures(none) %0, ptr readnone captures(none) %1) #0 {
  %3 = tail call ptr @PyType_GetDict(ptr noundef nonnull @PyLong_Type) #3
  %.not = icmp eq ptr %3, null
  br i1 %.not, label %4, label %5

4:                                                ; preds = %2
  tail call void @__assert_fail(ptr noundef nonnull @.str.21, ptr noundef nonnull @.str.20, i32 noundef 62, ptr noundef nonnull @__PRETTY_FUNCTION__.test_get_type_dict) #4
  unreachable

5:                                                ; preds = %2
  %6 = tail call ptr @PyDict_GetItemString(ptr noundef nonnull %3, ptr noundef nonnull @.str.22) #3
  %.not12 = icmp eq ptr %6, null
  br i1 %.not12, label %7, label %8

7:                                                ; preds = %5
  tail call void @__assert_fail(ptr noundef nonnull @.str.23, ptr noundef nonnull @.str.20, i32 noundef 63, ptr noundef nonnull @__PRETTY_FUNCTION__.test_get_type_dict) #4
  unreachable

8:                                                ; preds = %5
  %9 = load i32, ptr %3, align 8, !tbaa !20
  %.not.i = icmp sgt i32 %9, -1
  br i1 %.not.i, label %10, label %Py_DECREF.exit

10:                                               ; preds = %8
  %11 = add nsw i32 %9, -1
  store i32 %11, ptr %3, align 8, !tbaa !20
  %12 = icmp eq i32 %11, 0
  br i1 %12, label %13, label %Py_DECREF.exit

13:                                               ; preds = %10
  tail call void @_Py_Dealloc(ptr noundef nonnull %3) #3
  br label %Py_DECREF.exit

Py_DECREF.exit:                                   ; preds = %8, %10, %13
  %14 = tail call ptr @PyType_FromSpec(ptr noundef nonnull @HeapTypeNameType_Spec) #3
  %.not13 = icmp eq ptr %14, null
  br i1 %.not13, label %15, label %16

15:                                               ; preds = %Py_DECREF.exit
  tail call void @__assert_fail(ptr noundef nonnull @.str.24, ptr noundef nonnull @.str.20, i32 noundef 68, ptr noundef nonnull @__PRETTY_FUNCTION__.test_get_type_dict) #4
  unreachable

16:                                               ; preds = %Py_DECREF.exit
  %17 = load i32, ptr @_Py_NoneStruct, align 8, !tbaa !20
  %18 = icmp slt i32 %17, 0
  br i1 %18, label %_Py_NewRef.exit, label %19

19:                                               ; preds = %16
  %20 = add nuw i32 %17, 1
  store i32 %20, ptr @_Py_NoneStruct, align 8, !tbaa !20
  br label %_Py_NewRef.exit

_Py_NewRef.exit:                                  ; preds = %16, %19
  %21 = tail call i32 @PyObject_SetAttrString(ptr noundef nonnull %14, ptr noundef nonnull @.str.25, ptr noundef nonnull @_Py_NoneStruct) #3
  %22 = icmp sgt i32 %21, -1
  br i1 %22, label %24, label %23

23:                                               ; preds = %_Py_NewRef.exit
  tail call void @__assert_fail(ptr noundef nonnull @.str.26, ptr noundef nonnull @.str.20, i32 noundef 70, ptr noundef nonnull @__PRETTY_FUNCTION__.test_get_type_dict) #4
  unreachable

24:                                               ; preds = %_Py_NewRef.exit
  %25 = tail call ptr @PyType_GetDict(ptr noundef nonnull %14) #3
  %.not14 = icmp eq ptr %25, null
  br i1 %.not14, label %26, label %27

26:                                               ; preds = %24
  tail call void @__assert_fail(ptr noundef nonnull @.str.27, ptr noundef nonnull @.str.20, i32 noundef 72, ptr noundef nonnull @__PRETTY_FUNCTION__.test_get_type_dict) #4
  unreachable

27:                                               ; preds = %24
  %28 = tail call ptr @PyDict_GetItemString(ptr noundef nonnull %25, ptr noundef nonnull @.str.25) #3
  %.not15 = icmp eq ptr %28, null
  br i1 %.not15, label %29, label %30

29:                                               ; preds = %27
  tail call void @__assert_fail(ptr noundef nonnull @.str.28, ptr noundef nonnull @.str.20, i32 noundef 73, ptr noundef nonnull @__PRETTY_FUNCTION__.test_get_type_dict) #4
  unreachable

30:                                               ; preds = %27
  %31 = load i32, ptr %14, align 8, !tbaa !20
  %.not.i16 = icmp sgt i32 %31, -1
  br i1 %.not.i16, label %32, label %Py_DECREF.exit17

32:                                               ; preds = %30
  %33 = add nsw i32 %31, -1
  store i32 %33, ptr %14, align 8, !tbaa !20
  %34 = icmp eq i32 %33, 0
  br i1 %34, label %35, label %Py_DECREF.exit17

35:                                               ; preds = %32
  tail call void @_Py_Dealloc(ptr noundef nonnull %14) #3
  br label %Py_DECREF.exit17

Py_DECREF.exit17:                                 ; preds = %30, %32, %35
  %36 = load i32, ptr %25, align 8, !tbaa !20
  %.not.i18 = icmp sgt i32 %36, -1
  br i1 %.not.i18, label %37, label %Py_DECREF.exit19

37:                                               ; preds = %Py_DECREF.exit17
  %38 = add nsw i32 %36, -1
  store i32 %38, ptr %25, align 8, !tbaa !20
  %39 = icmp eq i32 %38, 0
  br i1 %39, label %40, label %Py_DECREF.exit19

40:                                               ; preds = %37
  tail call void @_Py_Dealloc(ptr noundef nonnull %25) #3
  br label %Py_DECREF.exit19

Py_DECREF.exit19:                                 ; preds = %Py_DECREF.exit17, %37, %40
  ret ptr @_Py_NoneStruct
}